; Function Attrs: null_pointer_is_valid sspstrong uwtable
define internal void @fragment_key_free_persistent(ptr noundef %0) #0 {
  %.not = icmp eq ptr %0, null
  br i1 %.not, label %5, label %2

2:                                                ; preds = %1
  %3 = load ptr, ptr getelementptr inbounds nuw (i8, ptr @addresses_ports_reassembly_table_functions, i64 40), align 8
  %4 = load ptr, ptr %0, align 8
  tail call void %3(ptr noundef %4)
  tail call void @g_slice_free1(i64 noundef 16, ptr noundef nonnull %0)
  br label %5

5:                                                ; preds = %2, %1
  ret void
}